; Function Attrs: nounwind uwtable
define ptr @l_BitVec_reduceShiftShift(ptr noundef %0, ptr noundef %1, ptr noundef %2, ptr readnone captures(none) %3, ptr readnone captures(none) %4, ptr readnone captures(none) %5, ptr noundef %6, ptr noundef %7, ptr noundef %8, ptr noundef %9, ptr noundef %10) local_unnamed_addr #1 {
  %12 = tail call zeroext i8 @l_Lean_Expr_isAppOfArity(ptr noundef %2, ptr noundef %0, ptr noundef nonnull inttoptr (i64 13 to ptr)) #5
  %13 = icmp eq i8 %12, 0
  br i1 %13, label %14, label %76

14:                                               ; preds = %11
  %15 = ptrtoint ptr %9 to i64
  %16 = and i64 %15, 1
  %.not = icmp eq i64 %16, 0
  br i1 %.not, label %17, label %lean_dec.exit32

17:                                               ; preds = %14
  %18 = load i32, ptr %9, align 4, !tbaa !10
  %19 = icmp sgt i32 %18, 1
  br i1 %19, label %20, label %22, !prof !13

20:                                               ; preds = %17
  %21 = add nsw i32 %18, -1
  store i32 %21, ptr %9, align 4, !tbaa !10
  br label %lean_dec.exit32

22:                                               ; preds = %17
  %.not.i = icmp eq i32 %18, 0
  br i1 %.not.i, label %lean_dec.exit32, label %23

23:                                               ; preds = %22
  tail call void @lean_dec_ref_cold(ptr noundef nonnull %9) #5
  br label %lean_dec.exit32

lean_dec.exit32:                                  ; preds = %23, %22, %20, %14
  %24 = ptrtoint ptr %8 to i64
  %25 = and i64 %24, 1
  %.not43 = icmp eq i64 %25, 0
  br i1 %.not43, label %26, label %lean_dec.exit31

26:                                               ; preds = %lean_dec.exit32
  %27 = load i32, ptr %8, align 4, !tbaa !10
  %28 = icmp sgt i32 %27, 1
  br i1 %28, label %29, label %31, !prof !13

29:                                               ; preds = %26
  %30 = add nsw i32 %27, -1
  store i32 %30, ptr %8, align 4, !tbaa !10
  br label %lean_dec.exit31

31:                                               ; preds = %26
  %.not.i33 = icmp eq i32 %27, 0
  br i1 %.not.i33, label %lean_dec.exit31, label %32

32:                                               ; preds = %31
  tail call void @lean_dec_ref_cold(ptr noundef nonnull %8) #5
  br label %lean_dec.exit31

lean_dec.exit31:                                  ; preds = %32, %31, %29, %lean_dec.exit32
  %33 = ptrtoint ptr %7 to i64
  %34 = and i64 %33, 1
  %.not44 = icmp eq i64 %34, 0
  br i1 %.not44, label %35, label %lean_dec.exit30

35:                                               ; preds = %lean_dec.exit31
  %36 = load i32, ptr %7, align 4, !tbaa !10
  %37 = icmp sgt i32 %36, 1
  br i1 %37, label %38, label %40, !prof !13

38:                                               ; preds = %35
  %39 = add nsw i32 %36, -1
  store i32 %39, ptr %7, align 4, !tbaa !10
  br label %lean_dec.exit30

40:                                               ; preds = %35
  %.not.i35 = icmp eq i32 %36, 0
  br i1 %.not.i35, label %lean_dec.exit30, label %41

41:                                               ; preds = %40
  tail call void @lean_dec_ref_cold(ptr noundef nonnull %7) #5
  br label %lean_dec.exit30

lean_dec.exit30:                                  ; preds = %41, %40, %38, %lean_dec.exit31
  %42 = ptrtoint ptr %6 to i64
  %43 = and i64 %42, 1
  %.not45 = icmp eq i64 %43, 0
  br i1 %.not45, label %44, label %lean_dec.exit29

44:                                               ; preds = %lean_dec.exit30
  %45 = load i32, ptr %6, align 4, !tbaa !10
  %46 = icmp sgt i32 %45, 1
  br i1 %46, label %47, label %49, !prof !13

47:                                               ; preds = %44
  %48 = add nsw i32 %45, -1
  store i32 %48, ptr %6, align 4, !tbaa !10
  br label %lean_dec.exit29

49:                                               ; preds = %44
  %.not.i37 = icmp eq i32 %45, 0
  br i1 %.not.i37, label %lean_dec.exit29, label %50

50:                                               ; preds = %49
  tail call void @lean_dec_ref_cold(ptr noundef nonnull %6) #5
  br label %lean_dec.exit29

lean_dec.exit29:                                  ; preds = %50, %49, %47, %lean_dec.exit30
  %51 = ptrtoint ptr %1 to i64
  %52 = and i64 %51, 1
  %.not46 = icmp eq i64 %52, 0
  br i1 %.not46, label %53, label %lean_dec.exit28

53:                                               ; preds = %lean_dec.exit29
  %54 = load i32, ptr %1, align 4, !tbaa !10
  %55 = icmp sgt i32 %54, 1
  br i1 %55, label %56, label %58, !prof !13

56:                                               ; preds = %53
  %57 = add nsw i32 %54, -1
  store i32 %57, ptr %1, align 4, !tbaa !10
  br label %lean_dec.exit28

58:                                               ; preds = %53
  %.not.i39 = icmp eq i32 %54, 0
  br i1 %.not.i39, label %lean_dec.exit28, label %59

59:                                               ; preds = %58
  tail call void @lean_dec_ref_cold(ptr noundef nonnull %1) #5
  br label %lean_dec.exit28

lean_dec.exit28:                                  ; preds = %59, %58, %56, %lean_dec.exit29
  %60 = ptrtoint ptr %0 to i64
  %61 = and i64 %60, 1
  %.not47 = icmp eq i64 %61, 0
  br i1 %.not47, label %62, label %lean_dec.exit

62:                                               ; preds = %lean_dec.exit28
  %63 = load i32, ptr %0, align 4, !tbaa !10
  %64 = icmp sgt i32 %63, 1
  br i1 %64, label %65, label %67, !prof !13

65:                                               ; preds = %62
  %66 = add nsw i32 %63, -1
  store i32 %66, ptr %0, align 4, !tbaa !10
  br label %lean_dec.exit

67:                                               ; preds = %62
  %.not.i41 = icmp eq i32 %63, 0
  br i1 %.not.i41, label %lean_dec.exit, label %68

68:                                               ; preds = %67
  tail call void @lean_dec_ref_cold(ptr noundef nonnull %0) #5
  br label %lean_dec.exit

lean_dec.exit:                                    ; preds = %68, %67, %65, %lean_dec.exit28
  %69 = load ptr, ptr @l_BitVec_reduceBinPred___lambda__1___closed__1, align 8, !tbaa !5
  tail call void @lean_inc_heartbeat() #5
  %70 = tail call noalias ptr @mi_malloc_small(i64 noundef 24) #5
  %71 = icmp eq ptr %70, null
  br i1 %71, label %72, label %lean_alloc_ctor.exit

72:                                               ; preds = %lean_dec.exit
  tail call void @lean_internal_panic_out_of_memory() #6
  unreachable

lean_alloc_ctor.exit:                             ; preds = %lean_dec.exit
  %73 = getelementptr inbounds nuw i8, ptr %70, i64 4
  store i32 1, ptr %70, align 4, !tbaa !10
  store i32 131096, ptr %73, align 4
  %74 = getelementptr inbounds nuw i8, ptr %70, i64 8
  store ptr %69, ptr %74, align 8, !tbaa !5
  %75 = getelementptr inbounds nuw i8, ptr %70, i64 16
  store ptr %10, ptr %75, align 8, !tbaa !5
  br label %78

76:                                               ; preds = %11
  %77 = tail call ptr @l_BitVec_reduceShiftShift___lambda__2(ptr noundef %2, ptr noundef %0, ptr noundef %1, ptr nonnull poison, ptr poison, ptr poison, ptr poison, ptr noundef %6, ptr noundef %7, ptr noundef %8, ptr noundef %9, ptr noundef %10)
  br label %78

78:                                               ; preds = %76, %lean_alloc_ctor.exit
  %.0 = phi ptr [ %70, %lean_alloc_ctor.exit ], [ %77, %76 ]
  ret ptr %.0
}